target datalayout = "e-m:e-p270:32:32-p271:32:32-p272:64:64-i64:64-i128:128-f80:128-n8:16:32:64-S128"
target triple = "x86_64-pc-linux-gnu"

%"class.cvc5::internal::NodeTemplate" = type { ptr }
%"class.cvc5::internal::ProofNodeToSExpr" = type { ptr, %"class.std::map", %"class.std::map.8", %"class.std::map.14", %"class.std::map.20", %"class.std::map.26", %"class.std::map.32", %"class.std::map.38", %"class.cvc5::internal::NodeTemplate", %"class.cvc5::internal::NodeTemplate", %"class.std::map.44", %"class.std::map.50" }
%"class.std::map" = type { %"class.std::_Rb_tree" }
%"class.std::_Rb_tree" = type { %"struct.std::_Rb_tree<cvc5::ProofRule, std::pair<const cvc5::ProofRule, cvc5::internal::NodeTemplate<true>>, std::_Select1st<std::pair<const cvc5::ProofRule, cvc5::internal::NodeTemplate<true>>>, std::less<cvc5::ProofRule>>::_Rb_tree_impl" }
%"struct.std::_Rb_tree<cvc5::ProofRule, std::pair<const cvc5::ProofRule, cvc5::internal::NodeTemplate<true>>, std::_Select1st<std::pair<const cvc5::ProofRule, cvc5::internal::NodeTemplate<true>>>, std::less<cvc5::ProofRule>>::_Rb_tree_impl" = type { [8 x i8], %"struct.std::_Rb_tree_header" }
%"struct.std::_Rb_tree_header" = type { %"struct.std::_Rb_tree_node_base", i64 }
%"struct.std::_Rb_tree_node_base" = type { i32, ptr, ptr, ptr }
%"class.std::map.8" = type { %"class.std::_Rb_tree.9" }
%"class.std::_Rb_tree.9" = type { %"struct.std::_Rb_tree<cvc5::internal::kind::Kind_t, std::pair<const cvc5::internal::kind::Kind_t, cvc5::internal::NodeTemplate<true>>, std::_Select1st<std::pair<const cvc5::internal::kind::Kind_t, cvc5::internal::NodeTemplate<true>>>, std::less<cvc5::internal::kind::Kind_t>>::_Rb_tree_impl" }
%"struct.std::_Rb_tree<cvc5::internal::kind::Kind_t, std::pair<const cvc5::internal::kind::Kind_t, cvc5::internal::NodeTemplate<true>>, std::_Select1st<std::pair<const cvc5::internal::kind::Kind_t, cvc5::internal::NodeTemplate<true>>>, std::less<cvc5::internal::kind::Kind_t>>::_Rb_tree_impl" = type { [8 x i8], %"struct.std::_Rb_tree_header" }
%"class.std::map.14" = type { %"class.std::_Rb_tree.15" }
%"class.std::_Rb_tree.15" = type { %"struct.std::_Rb_tree<cvc5::internal::theory::TheoryId, std::pair<const cvc5::internal::theory::TheoryId, cvc5::internal::NodeTemplate<true>>, std::_Select1st<std::pair<const cvc5::internal::theory::TheoryId, cvc5::internal::NodeTemplate<true>>>, std::less<cvc5::internal::theory::TheoryId>>::_Rb_tree_impl" }
%"struct.std::_Rb_tree<cvc5::internal::theory::TheoryId, std::pair<const cvc5::internal::theory::TheoryId, cvc5::internal::NodeTemplate<true>>, std::_Select1st<std::pair<const cvc5::internal::theory::TheoryId, cvc5::internal::NodeTemplate<true>>>, std::less<cvc5::internal::theory::TheoryId>>::_Rb_tree_impl" = type { [8 x i8], %"struct.std::_Rb_tree_header" }
%"class.std::map.20" = type { %"class.std::_Rb_tree.21" }
%"class.std::_Rb_tree.21" = type { %"struct.std::_Rb_tree<cvc5::internal::MethodId, std::pair<const cvc5::internal::MethodId, cvc5::internal::NodeTemplate<true>>, std::_Select1st<std::pair<const cvc5::internal::MethodId, cvc5::internal::NodeTemplate<true>>>, std::less<cvc5::internal::MethodId>>::_Rb_tree_impl" }
%"struct.std::_Rb_tree<cvc5::internal::MethodId, std::pair<const cvc5::internal::MethodId, cvc5::internal::NodeTemplate<true>>, std::_Select1st<std::pair<const cvc5::internal::MethodId, cvc5::internal::NodeTemplate<true>>>, std::less<cvc5::internal::MethodId>>::_Rb_tree_impl" = type { [8 x i8], %"struct.std::_Rb_tree_header" }
%"class.std::map.26" = type { %"class.std::_Rb_tree.27" }
%"class.std::_Rb_tree.27" = type { %"struct.std::_Rb_tree<cvc5::internal::TrustId, std::pair<const cvc5::internal::TrustId, cvc5::internal::NodeTemplate<true>>, std::_Select1st<std::pair<const cvc5::internal::TrustId, cvc5::internal::NodeTemplate<true>>>, std::less<cvc5::internal::TrustId>>::_Rb_tree_impl" }
%"struct.std::_Rb_tree<cvc5::internal::TrustId, std::pair<const cvc5::internal::TrustId, cvc5::internal::NodeTemplate<true>>, std::_Select1st<std::pair<const cvc5::internal::TrustId, cvc5::internal::NodeTemplate<true>>>, std::less<cvc5::internal::TrustId>>::_Rb_tree_impl" = type { [8 x i8], %"struct.std::_Rb_tree_header" }
%"class.std::map.32" = type { %"class.std::_Rb_tree.33" }
%"class.std::_Rb_tree.33" = type { %"struct.std::_Rb_tree<cvc5::internal::theory::InferenceId, std::pair<const cvc5::internal::theory::InferenceId, cvc5::internal::NodeTemplate<true>>, std::_Select1st<std::pair<const cvc5::internal::theory::InferenceId, cvc5::internal::NodeTemplate<true>>>, std::less<cvc5::internal::theory::InferenceId>>::_Rb_tree_impl" }
%"struct.std::_Rb_tree<cvc5::internal::theory::InferenceId, std::pair<const cvc5::internal::theory::InferenceId, cvc5::internal::NodeTemplate<true>>, std::_Select1st<std::pair<const cvc5::internal::theory::InferenceId, cvc5::internal::NodeTemplate<true>>>, std::less<cvc5::internal::theory::InferenceId>>::_Rb_tree_impl" = type { [8 x i8], %"struct.std::_Rb_tree_header" }
%"class.std::map.38" = type { %"class.std::_Rb_tree.39" }
%"class.std::_Rb_tree.39" = type { %"struct.std::_Rb_tree<cvc5::ProofRewriteRule, std::pair<const cvc5::ProofRewriteRule, cvc5::internal::NodeTemplate<true>>, std::_Select1st<std::pair<const cvc5::ProofRewriteRule, cvc5::internal::NodeTemplate<true>>>, std::less<cvc5::ProofRewriteRule>>::_Rb_tree_impl" }
%"struct.std::_Rb_tree<cvc5::ProofRewriteRule, std::pair<const cvc5::ProofRewriteRule, cvc5::internal::NodeTemplate<true>>, std::_Select1st<std::pair<const cvc5::ProofRewriteRule, cvc5::internal::NodeTemplate<true>>>, std::less<cvc5::ProofRewriteRule>>::_Rb_tree_impl" = type { [8 x i8], %"struct.std::_Rb_tree_header" }
%"class.std::map.44" = type { %"class.std::_Rb_tree.45" }
%"class.std::_Rb_tree.45" = type { %"struct.std::_Rb_tree<const cvc5::internal::ProofNode *, std::pair<const cvc5::internal::ProofNode *const, cvc5::internal::NodeTemplate<true>>, std::_Select1st<std::pair<const cvc5::internal::ProofNode *const, cvc5::internal::NodeTemplate<true>>>, std::less<const cvc5::internal::ProofNode *>>::_Rb_tree_impl" }
%"struct.std::_Rb_tree<const cvc5::internal::ProofNode *, std::pair<const cvc5::internal::ProofNode *const, cvc5::internal::NodeTemplate<true>>, std::_Select1st<std::pair<const cvc5::internal::ProofNode *const, cvc5::internal::NodeTemplate<true>>>, std::less<const cvc5::internal::ProofNode *>>::_Rb_tree_impl" = type { [8 x i8], %"struct.std::_Rb_tree_header" }
%"class.std::map.50" = type { %"class.std::_Rb_tree.51" }
%"class.std::_Rb_tree.51" = type { %"struct.std::_Rb_tree<cvc5::internal::NodeTemplate<false>, std::pair<const cvc5::internal::NodeTemplate<false>, cvc5::internal::NodeTemplate<true>>, std::_Select1st<std::pair<const cvc5::internal::NodeTemplate<false>, cvc5::internal::NodeTemplate<true>>>, std::less<cvc5::internal::NodeTemplate<false>>>::_Rb_tree_impl" }
%"struct.std::_Rb_tree<cvc5::internal::NodeTemplate<false>, std::pair<const cvc5::internal::NodeTemplate<false>, cvc5::internal::NodeTemplate<true>>, std::_Select1st<std::pair<const cvc5::internal::NodeTemplate<false>, cvc5::internal::NodeTemplate<true>>>, std::less<cvc5::internal::NodeTemplate<false>>>::_Rb_tree_impl" = type { [8 x i8], %"struct.std::_Rb_tree_header" }
%"class.cvc5::internal::NodeTemplate.56" = type { ptr }

; Function Attrs: inlinehint mustprogress nounwind uwtable
define linkonce_odr hidden void @_ZNK4cvc58internal12NodeTemplateILb0EE21assertTNodeNotExpiredEv(ptr noundef nonnull align 8 dereferenceable(8) %0) #9 comdat align 2 {
  %2 = alloca ptr, align 8
  store ptr %0, ptr %2, align 8, !tbaa !46
  ret void
}

; Function Attrs: inlinehint mustprogress uwtable
define linkonce_odr hidden void @_ZNK4cvc58internal12NodeTemplateILb0EE8toStreamERSo(ptr noundef nonnull align 8 dereferenceable(8) %0, ptr noundef nonnull align 8 dereferenceable(8) %1) #7 comdat align 2 {
  %3 = alloca ptr, align 8
  %4 = alloca ptr, align 8
  store ptr %0, ptr %3, align 8, !tbaa !46
  store ptr %1, ptr %4, align 8, !tbaa !41
  %5 = load ptr, ptr %3, align 8
  call void @_ZNK4cvc58internal12NodeTemplateILb0EE21assertTNodeNotExpiredEv(ptr noundef nonnull align 8 dereferenceable(8) %5)
  %6 = getelementptr inbounds nuw %"class.cvc5::internal::NodeTemplate.56", ptr %5, i32 0, i32 0
  %7 = load ptr, ptr %6, align 8, !tbaa !48
  %8 = load ptr, ptr %4, align 8, !tbaa !41
  call void @_ZNK4cvc58internal4expr9NodeValue8toStreamERSo(ptr noundef nonnull align 8 dereferenceable(24) %7, ptr noundef nonnull align 8 dereferenceable(8) %8)
  ret void
}

; Function Attrs: mustprogress nounwind uwtable
define linkonce_odr hidden void @_ZN4cvc58internal12NodeTemplateILb0EED2Ev(ptr noundef nonnull align 8 dereferenceable(8) %0) unnamed_addr #5 comdat align 2 {
  %2 = alloca ptr, align 8
  store ptr %0, ptr %2, align 8, !tbaa !46
  ret void
}

; Function Attrs: inlinehint mustprogress uwtable
define linkonce_odr hidden noundef nonnull align 8 dereferenceable(8) ptr @_ZN4cvc58internallsERSoNS0_12NodeTemplateILb0EEE(ptr noundef nonnull align 8 dereferenceable(8) %0, ptr noundef %1) #7 comdat {
  %3 = alloca ptr, align 8
  %4 = alloca ptr, align 8
  store ptr %0, ptr %3, align 8, !tbaa !41
  store ptr %1, ptr %4, align 8, !tbaa !46
  %5 = load ptr, ptr %3, align 8, !tbaa !41
  call void @_ZNK4cvc58internal12NodeTemplateILb0EE8toStreamERSo(ptr noundef nonnull align 8 dereferenceable(8) %1, ptr noundef nonnull align 8 dereferenceable(8) %5)
  %6 = load ptr, ptr %3, align 8, !tbaa !41
  ret ptr %6
}

; Function Attrs: mustprogress nounwind uwtable
define linkonce_odr hidden void @_ZN4cvc58internal12NodeTemplateILb0EEC2ERKNS1_ILb1EEE(ptr noundef nonnull align 8 dereferenceable(8) %0, ptr noundef nonnull align 8 dereferenceable(8) %1) unnamed_addr #5 comdat align 2 {
  %3 = alloca ptr, align 8
  %4 = alloca ptr, align 8
  store ptr %0, ptr %3, align 8, !tbaa !46
  store ptr %1, ptr %4, align 8, !tbaa !29
  %5 = load ptr, ptr %3, align 8
  %6 = load ptr, ptr %4, align 8, !tbaa !29
  %7 = getelementptr inbounds nuw %"class.cvc5::internal::NodeTemplate", ptr %6, i32 0, i32 0
  %8 = load ptr, ptr %7, align 8, !tbaa !30
  %9 = getelementptr inbounds nuw %"class.cvc5::internal::NodeTemplate.56", ptr %5, i32 0, i32 0
  store ptr %8, ptr %9, align 8, !tbaa !48
  ret void
}

; Function Attrs: mustprogress uwtable
define hidden void @_ZNK4cvc58internal9ProofNode10printDebugERSob(ptr noundef nonnull align 8 dereferenceable(65) %0, ptr noundef nonnull align 8 dereferenceable(8) %1, i1 noundef zeroext %2) #4 align 2 personality ptr @__gxx_personality_v0 {
  %4 = alloca ptr, align 8
  %5 = alloca ptr, align 8
  %6 = alloca i8, align 1
  %7 = alloca %"class.cvc5::internal::ProofNodeToSExpr", align 8
  %8 = alloca %"class.cvc5::internal::NodeTemplate", align 8
  %9 = alloca ptr, align 8
  %10 = alloca i32, align 4
  %11 = alloca %"class.cvc5::internal::NodeTemplate.56", align 8
  store ptr %0, ptr %4, align 8, !tbaa !3
  store ptr %1, ptr %5, align 8, !tbaa !41
  %12 = zext i1 %2 to i8
  store i8 %12, ptr %6, align 1, !tbaa !43
  %13 = load ptr, ptr %4, align 8
  call void @llvm.lifetime.start.p0(i64 456, ptr %7) #3
  %14 = call noundef ptr @_ZN4cvc58internal11NodeManager9currentNMEv()
  call void @_ZN4cvc58internal16ProofNodeToSExprC1EPNS0_11NodeManagerE(ptr noundef nonnull align 8 dereferenceable(456) %7, ptr noundef %14)
  call void @llvm.lifetime.start.p0(i64 8, ptr %8) #3
  %15 = load i8, ptr %6, align 1, !tbaa !43, !range !44, !noundef !45
  %16 = trunc i8 %15 to i1
  invoke void @_ZN4cvc58internal16ProofNodeToSExpr14convertToSExprEPKNS0_9ProofNodeEb(ptr dead_on_unwind writable sret(%"class.cvc5::internal::NodeTemplate") align 8 %8, ptr noundef nonnull align 8 dereferenceable(456) %7, ptr noundef %13, i1 noundef zeroext %16)
          to label %17 unwind label %22

17:                                               ; preds = %3
  %18 = load ptr, ptr %5, align 8, !tbaa !41
  invoke void @_ZN4cvc58internal12NodeTemplateILb0EEC2ERKNS1_ILb1EEE(ptr noundef nonnull align 8 dereferenceable(8) %11, ptr noundef nonnull align 8 dereferenceable(8) %8)
          to label %19 unwind label %26

19:                                               ; preds = %17
  %20 = invoke noundef nonnull align 8 dereferenceable(8) ptr @_ZN4cvc58internallsERSoNS0_12NodeTemplateILb0EEE(ptr noundef nonnull align 8 dereferenceable(8) %18, ptr noundef %11)
          to label %21 unwind label %30

21:                                               ; preds = %19
  call void @_ZN4cvc58internal12NodeTemplateILb0EED2Ev(ptr noundef nonnull align 8 dereferenceable(8) %11) #3
  call void @_ZN4cvc58internal12NodeTemplateILb1EED2Ev(ptr noundef nonnull align 8 dereferenceable(8) %8) #3
  call void @llvm.lifetime.end.p0(i64 8, ptr %8) #3
  call void @_ZN4cvc58internal16ProofNodeToSExprD2Ev(ptr noundef nonnull align 8 dereferenceable(456) %7) #3
  call void @llvm.lifetime.end.p0(i64 456, ptr %7) #3
  ret void

22:                                               ; preds = %3
  %23 = landingpad { ptr, i32 }
          cleanup
  %24 = extractvalue { ptr, i32 } %23, 0
  store ptr %24, ptr %9, align 8
  %25 = extractvalue { ptr, i32 } %23, 1
  store i32 %25, ptr %10, align 4
  br label %35

26:                                               ; preds = %17
  %27 = landingpad { ptr, i32 }
          cleanup
  %28 = extractvalue { ptr, i32 } %27, 0
  store ptr %28, ptr %9, align 8
  %29 = extractvalue { ptr, i32 } %27, 1
  store i32 %29, ptr %10, align 4
  br label %34

30:                                               ; preds = %19
  %31 = landingpad { ptr, i32 }
          cleanup
  %32 = extractvalue { ptr, i32 } %31, 0
  store ptr %32, ptr %9, align 8
  %33 = extractvalue { ptr, i32 } %31, 1
  store i32 %33, ptr %10, align 4
  call void @_ZN4cvc58internal12NodeTemplateILb0EED2Ev(ptr noundef nonnull align 8 dereferenceable(8) %11) #3
  br label %34

34:                                               ; preds = %30, %26
  call void @_ZN4cvc58internal12NodeTemplateILb1EED2Ev(ptr noundef nonnull align 8 dereferenceable(8) %8) #3
  br label %35

35:                                               ; preds = %34, %22
  call void @llvm.lifetime.end.p0(i64 8, ptr %8) #3
  call void @_ZN4cvc58internal16ProofNodeToSExprD2Ev(ptr noundef nonnull align 8 dereferenceable(456) %7) #3
  call void @llvm.lifetime.end.p0(i64 456, ptr %7) #3
  br label %36

36:                                               ; preds = %35
  %37 = load ptr, ptr %9, align 8
  %38 = load i32, ptr %10, align 4
  %39 = insertvalue { ptr, i32 } poison, ptr %37, 0
  %40 = insertvalue { ptr, i32 } %39, i32 %38, 1
  resume { ptr, i32 } %40
}