; Function Attrs: mustprogress uwtable
define hidden void @_ZNK4cvc58internal9ProofNode10printDebugERSob(ptr noundef nonnull align 8 dereferenceable(65) %0, ptr noundef nonnull align 8 dereferenceable(8) %1, i1 noundef zeroext %2) local_unnamed_addr #3 align 2 personality ptr @__gxx_personality_v0 {
  %4 = alloca %"class.cvc5::internal::ProofNodeToSExpr", align 8
  %5 = alloca %"class.cvc5::internal::NodeTemplate", align 8
  call void @llvm.lifetime.start.p0(i64 456, ptr nonnull %4) #23
  %6 = tail call noundef ptr @_ZN4cvc58internal11NodeManager9currentNMEv()
  call void @_ZN4cvc58internal16ProofNodeToSExprC1EPNS0_11NodeManagerE(ptr noundef nonnull align 8 dereferenceable(456) %4, ptr noundef %6)
  call void @llvm.lifetime.start.p0(i64 8, ptr nonnull %5) #23
  invoke void @_ZN4cvc58internal16ProofNodeToSExpr14convertToSExprEPKNS0_9ProofNodeEb(ptr dead_on_unwind nonnull writable sret(%"class.cvc5::internal::NodeTemplate") align 8 %5, ptr noundef nonnull align 8 dereferenceable(456) %4, ptr noundef nonnull %0, i1 noundef zeroext %2)
          to label %7 unwind label %22

7:                                                ; preds = %3
  %8 = load ptr, ptr %5, align 8, !tbaa !9
  invoke void @_ZNK4cvc58internal4expr9NodeValue8toStreamERSo(ptr noundef nonnull align 8 dereferenceable(24) %8, ptr noundef nonnull align 8 dereferenceable(8) %1)
          to label %_ZN4cvc58internallsERSoNS0_12NodeTemplateILb0EEE.exit unwind label %24

_ZN4cvc58internallsERSoNS0_12NodeTemplateILb0EEE.exit: ; preds = %7
  %9 = load ptr, ptr %5, align 8, !tbaa !9
  %10 = load i64, ptr %9, align 8
  %11 = and i64 %10, 1152920405095219200
  %.not.i.i = icmp eq i64 %11, 1152920405095219200
  br i1 %.not.i.i, label %_ZN4cvc58internal12NodeTemplateILb1EED2Ev.exit, label %12, !prof !26

12:                                               ; preds = %_ZN4cvc58internallsERSoNS0_12NodeTemplateILb0EEE.exit
  %13 = add i64 %10, 1152920405095219200
  %14 = and i64 %13, 1152920405095219200
  %15 = and i64 %10, -1152920405095219201
  %16 = or disjoint i64 %14, %15
  store i64 %16, ptr %9, align 8
  %17 = icmp eq i64 %14, 0
  br i1 %17, label %18, label %_ZN4cvc58internal12NodeTemplateILb1EED2Ev.exit, !prof !26

18:                                               ; preds = %12
  invoke void @_ZN4cvc58internal4expr9NodeValue15markForDeletionEv(ptr noundef nonnull align 8 dereferenceable(24) %9)
          to label %_ZN4cvc58internal12NodeTemplateILb1EED2Ev.exit unwind label %19

19:                                               ; preds = %18
  %20 = landingpad { ptr, i32 }
          catch ptr null
  %21 = extractvalue { ptr, i32 } %20, 0
  call void @__clang_call_terminate(ptr %21) #25
  unreachable

_ZN4cvc58internal12NodeTemplateILb1EED2Ev.exit:   ; preds = %_ZN4cvc58internallsERSoNS0_12NodeTemplateILb0EEE.exit, %12, %18
  call void @llvm.lifetime.end.p0(i64 8, ptr nonnull %5) #23
  call void @_ZN4cvc58internal16ProofNodeToSExprD2Ev(ptr noundef nonnull align 8 dereferenceable(456) %4) #23
  call void @llvm.lifetime.end.p0(i64 456, ptr nonnull %4) #23
  ret void

22:                                               ; preds = %3
  %23 = landingpad { ptr, i32 }
          cleanup
  br label %26

24:                                               ; preds = %7
  %25 = landingpad { ptr, i32 }
          cleanup
  call void @_ZN4cvc58internal12NodeTemplateILb1EED2Ev(ptr noundef nonnull align 8 dereferenceable(8) %5) #23
  br label %26

26:                                               ; preds = %24, %22
  %.pn = phi { ptr, i32 } [ %25, %24 ], [ %23, %22 ]
  call void @llvm.lifetime.end.p0(i64 8, ptr nonnull %5) #23
  call void @_ZN4cvc58internal16ProofNodeToSExprD2Ev(ptr noundef nonnull align 8 dereferenceable(456) %4) #23
  call void @llvm.lifetime.end.p0(i64 456, ptr nonnull %4) #23
  resume { ptr, i32 } %.pn
}